target datalayout = "e-m:e-p270:32:32-p271:32:32-p272:64:64-i64:64-i128:128-f80:128-n8:16:32:64-S128"
target triple = "x86_64-pc-linux-gnu"

%"class.boost::urls::ipv4_address" = type { i32 }
%class.anon = type { i8 }

; Function Attrs: noinline noreturn nounwind uwtable
define linkonce_odr hidden void @__clang_call_terminate(ptr noundef %0) #3 comdat {
  %2 = call ptr @__cxa_begin_catch(ptr %0) #15
  call void @_ZSt9terminatev() #16
  unreachable
}

; Function Attrs: inlinehint mustprogress nounwind uwtable
define internal void @"_ZZNK5boost4urls12ipv4_address10print_implEPcENK3$_0clERS2_h"(ptr noundef nonnull align 1 dereferenceable(1) %0, ptr noundef nonnull align 8 dereferenceable(8) %1, i8 noundef zeroext %2) #1 align 2 {
  %4 = alloca ptr, align 8
  %5 = alloca ptr, align 8
  %6 = alloca i8, align 1
  store ptr %0, ptr %4, align 8, !tbaa !7
  store ptr %1, ptr %5, align 8, !tbaa !7
  store i8 %2, ptr %6, align 1, !tbaa !18
  %7 = load i8, ptr %6, align 1, !tbaa !18
  %8 = zext i8 %7 to i32
  %9 = icmp sge i32 %8, 100
  br i1 %9, label %10, label %35

10:                                               ; preds = %3
  %11 = load i8, ptr %6, align 1, !tbaa !18
  %12 = zext i8 %11 to i32
  %13 = sdiv i32 %12, 100
  %14 = add nsw i32 48, %13
  %15 = trunc i32 %14 to i8
  %16 = load ptr, ptr %5, align 8, !tbaa !7
  %17 = load ptr, ptr %16, align 8, !tbaa !7
  %18 = getelementptr inbounds nuw i8, ptr %17, i32 1
  store ptr %18, ptr %16, align 8, !tbaa !7
  store i8 %15, ptr %17, align 1, !tbaa !18
  %19 = load i8, ptr %6, align 1, !tbaa !18
  %20 = zext i8 %19 to i32
  %21 = srem i32 %20, 100
  %22 = trunc i32 %21 to i8
  store i8 %22, ptr %6, align 1, !tbaa !18
  %23 = load i8, ptr %6, align 1, !tbaa !18
  %24 = zext i8 %23 to i32
  %25 = sdiv i32 %24, 10
  %26 = add nsw i32 48, %25
  %27 = trunc i32 %26 to i8
  %28 = load ptr, ptr %5, align 8, !tbaa !7
  %29 = load ptr, ptr %28, align 8, !tbaa !7
  %30 = getelementptr inbounds nuw i8, ptr %29, i32 1
  store ptr %30, ptr %28, align 8, !tbaa !7
  store i8 %27, ptr %29, align 1, !tbaa !18
  %31 = load i8, ptr %6, align 1, !tbaa !18
  %32 = zext i8 %31 to i32
  %33 = srem i32 %32, 10
  %34 = trunc i32 %33 to i8
  store i8 %34, ptr %6, align 1, !tbaa !18
  br label %53

35:                                               ; preds = %3
  %36 = load i8, ptr %6, align 1, !tbaa !18
  %37 = zext i8 %36 to i32
  %38 = icmp sge i32 %37, 10
  br i1 %38, label %39, label %52

39:                                               ; preds = %35
  %40 = load i8, ptr %6, align 1, !tbaa !18
  %41 = zext i8 %40 to i32
  %42 = sdiv i32 %41, 10
  %43 = add nsw i32 48, %42
  %44 = trunc i32 %43 to i8
  %45 = load ptr, ptr %5, align 8, !tbaa !7
  %46 = load ptr, ptr %45, align 8, !tbaa !7
  %47 = getelementptr inbounds nuw i8, ptr %46, i32 1
  store ptr %47, ptr %45, align 8, !tbaa !7
  store i8 %44, ptr %46, align 1, !tbaa !18
  %48 = load i8, ptr %6, align 1, !tbaa !18
  %49 = zext i8 %48 to i32
  %50 = srem i32 %49, 10
  %51 = trunc i32 %50 to i8
  store i8 %51, ptr %6, align 1, !tbaa !18
  br label %52

52:                                               ; preds = %39, %35
  br label %53

53:                                               ; preds = %52, %10
  %54 = load i8, ptr %6, align 1, !tbaa !18
  %55 = zext i8 %54 to i32
  %56 = add nsw i32 48, %55
  %57 = trunc i32 %56 to i8
  %58 = load ptr, ptr %5, align 8, !tbaa !7
  %59 = load ptr, ptr %58, align 8, !tbaa !7
  %60 = getelementptr inbounds nuw i8, ptr %59, i32 1
  store ptr %60, ptr %58, align 8, !tbaa !7
  store i8 %57, ptr %59, align 1, !tbaa !18
  ret void
}

; Function Attrs: mustprogress nounwind uwtable
define noundef i32 @_ZNK5boost4urls12ipv4_address7to_uintEv(ptr noundef nonnull align 4 dereferenceable(4) %0) #2 align 2 {
  %2 = alloca ptr, align 8
  store ptr %0, ptr %2, align 8, !tbaa !7
  %3 = load ptr, ptr %2, align 8
  %4 = getelementptr inbounds nuw %"class.boost::urls::ipv4_address", ptr %3, i32 0, i32 0
  %5 = load i32, ptr %4, align 4, !tbaa !16
  ret i32 %5
}

; Function Attrs: mustprogress nounwind uwtable
define noundef i64 @_ZNK5boost4urls12ipv4_address10print_implEPc(ptr noundef nonnull align 4 dereferenceable(4) %0, ptr noundef %1) #2 align 2 personality ptr @__gxx_personality_v0 {
  %3 = alloca ptr, align 8
  %4 = alloca ptr, align 8
  %5 = alloca ptr, align 8
  %6 = alloca %class.anon, align 1
  %7 = alloca i32, align 4
  store ptr %0, ptr %3, align 8, !tbaa !7
  store ptr %1, ptr %4, align 8, !tbaa !7
  %8 = load ptr, ptr %3, align 8
  call void @llvm.lifetime.start.p0(i64 8, ptr %5) #15
  %9 = load ptr, ptr %4, align 8, !tbaa !7
  store ptr %9, ptr %5, align 8, !tbaa !7
  call void @llvm.lifetime.start.p0(i64 1, ptr %6) #15
  call void @llvm.lifetime.start.p0(i64 4, ptr %7) #15
  %10 = call noundef i32 @_ZNK5boost4urls12ipv4_address7to_uintEv(ptr noundef nonnull align 4 dereferenceable(4) %8) #15
  store i32 %10, ptr %7, align 4, !tbaa !3
  %11 = load i32, ptr %7, align 4, !tbaa !3
  %12 = lshr i32 %11, 24
  %13 = and i32 %12, 255
  %14 = trunc i32 %13 to i8
  invoke void @"_ZZNK5boost4urls12ipv4_address10print_implEPcENK3$_0clERS2_h"(ptr noundef nonnull align 1 dereferenceable(1) %6, ptr noundef nonnull align 8 dereferenceable(8) %4, i8 noundef zeroext %14)
          to label %15 unwind label %41

15:                                               ; preds = %2
  %16 = load ptr, ptr %4, align 8, !tbaa !7
  %17 = getelementptr inbounds nuw i8, ptr %16, i32 1
  store ptr %17, ptr %4, align 8, !tbaa !7
  store i8 46, ptr %16, align 1, !tbaa !18
  %18 = load i32, ptr %7, align 4, !tbaa !3
  %19 = lshr i32 %18, 16
  %20 = and i32 %19, 255
  %21 = trunc i32 %20 to i8
  invoke void @"_ZZNK5boost4urls12ipv4_address10print_implEPcENK3$_0clERS2_h"(ptr noundef nonnull align 1 dereferenceable(1) %6, ptr noundef nonnull align 8 dereferenceable(8) %4, i8 noundef zeroext %21)
          to label %22 unwind label %41

22:                                               ; preds = %15
  %23 = load ptr, ptr %4, align 8, !tbaa !7
  %24 = getelementptr inbounds nuw i8, ptr %23, i32 1
  store ptr %24, ptr %4, align 8, !tbaa !7
  store i8 46, ptr %23, align 1, !tbaa !18
  %25 = load i32, ptr %7, align 4, !tbaa !3
  %26 = lshr i32 %25, 8
  %27 = and i32 %26, 255
  %28 = trunc i32 %27 to i8
  invoke void @"_ZZNK5boost4urls12ipv4_address10print_implEPcENK3$_0clERS2_h"(ptr noundef nonnull align 1 dereferenceable(1) %6, ptr noundef nonnull align 8 dereferenceable(8) %4, i8 noundef zeroext %28)
          to label %29 unwind label %41

29:                                               ; preds = %22
  %30 = load ptr, ptr %4, align 8, !tbaa !7
  %31 = getelementptr inbounds nuw i8, ptr %30, i32 1
  store ptr %31, ptr %4, align 8, !tbaa !7
  store i8 46, ptr %30, align 1, !tbaa !18
  %32 = load i32, ptr %7, align 4, !tbaa !3
  %33 = and i32 %32, 255
  %34 = trunc i32 %33 to i8
  invoke void @"_ZZNK5boost4urls12ipv4_address10print_implEPcENK3$_0clERS2_h"(ptr noundef nonnull align 1 dereferenceable(1) %6, ptr noundef nonnull align 8 dereferenceable(8) %4, i8 noundef zeroext %34)
          to label %35 unwind label %41

35:                                               ; preds = %29
  %36 = load ptr, ptr %4, align 8, !tbaa !7
  %37 = load ptr, ptr %5, align 8, !tbaa !7
  %38 = ptrtoint ptr %36 to i64
  %39 = ptrtoint ptr %37 to i64
  %40 = sub i64 %38, %39
  call void @llvm.lifetime.end.p0(i64 4, ptr %7) #15
  call void @llvm.lifetime.end.p0(i64 1, ptr %6) #15
  call void @llvm.lifetime.end.p0(i64 8, ptr %5) #15
  ret i64 %40

41:                                               ; preds = %29, %22, %15, %2
  %42 = landingpad { ptr, i32 }
          catch ptr null
  %43 = extractvalue { ptr, i32 } %42, 0
  call void @__clang_call_terminate(ptr %43) #16
  unreachable
}