; Function Attrs: mustprogress nofree norecurse nosync nounwind willreturn memory(write, argmem: readwrite, inaccessiblemem: none) uwtable
define noundef i64 @_ZNK5boost4urls12ipv4_address10print_implEPc(ptr nocapture noundef nonnull readonly align 4 dereferenceable(4) %0, ptr noundef %1) local_unnamed_addr #8 align 2 personality ptr @__gxx_personality_v0 {
  %3 = load i32, ptr %0, align 4, !tbaa !3
  %4 = lshr i32 %3, 24
  %5 = trunc nuw i32 %4 to i8
  %6 = icmp ugt i32 %3, 1677721599
  br i1 %6, label %7, label %12

7:                                                ; preds = %2
  %8 = udiv i8 %5, 100
  %9 = or disjoint i8 %8, 48
  %10 = getelementptr inbounds nuw i8, ptr %1, i64 1
  store i8 %9, ptr %1, align 1, !tbaa !8
  %11 = urem i8 %5, 100
  br label %.sink.split.i

12:                                               ; preds = %2
  %13 = icmp ugt i32 %3, 167772159
  br i1 %13, label %.sink.split.i, label %"_ZZNK5boost4urls12ipv4_address10print_implEPcENK3$_0clERS2_h.exit"

.sink.split.i:                                    ; preds = %12, %7
  %.0 = phi ptr [ %10, %7 ], [ %1, %12 ]
  %.sink6.i = phi i8 [ %11, %7 ], [ %5, %12 ]
  %14 = udiv i8 %.sink6.i, 10
  %15 = or disjoint i8 %14, 48
  %16 = getelementptr inbounds nuw i8, ptr %.0, i64 1
  store i8 %15, ptr %.0, align 1, !tbaa !8
  %17 = urem i8 %.sink6.i, 10
  br label %"_ZZNK5boost4urls12ipv4_address10print_implEPcENK3$_0clERS2_h.exit"

"_ZZNK5boost4urls12ipv4_address10print_implEPcENK3$_0clERS2_h.exit": ; preds = %12, %.sink.split.i
  %.1 = phi ptr [ %16, %.sink.split.i ], [ %1, %12 ]
  %.0.i = phi i8 [ %17, %.sink.split.i ], [ %5, %12 ]
  %18 = or disjoint i8 %.0.i, 48
  %19 = getelementptr inbounds nuw i8, ptr %.1, i64 1
  store i8 %18, ptr %.1, align 1, !tbaa !8
  %20 = getelementptr inbounds nuw i8, ptr %.1, i64 2
  store i8 46, ptr %19, align 1, !tbaa !8
  %21 = lshr i32 %3, 16
  %22 = trunc i32 %21 to i8
  %23 = icmp ugt i8 %22, 99
  br i1 %23, label %24, label %29

24:                                               ; preds = %"_ZZNK5boost4urls12ipv4_address10print_implEPcENK3$_0clERS2_h.exit"
  %25 = udiv i8 %22, 100
  %26 = or disjoint i8 %25, 48
  %27 = getelementptr inbounds nuw i8, ptr %.1, i64 3
  store i8 %26, ptr %20, align 1, !tbaa !8
  %28 = urem i8 %22, 100
  br label %.sink.split.i6

29:                                               ; preds = %"_ZZNK5boost4urls12ipv4_address10print_implEPcENK3$_0clERS2_h.exit"
  %30 = icmp ugt i8 %22, 9
  br i1 %30, label %.sink.split.i6, label %"_ZZNK5boost4urls12ipv4_address10print_implEPcENK3$_0clERS2_h.exit8"

.sink.split.i6:                                   ; preds = %29, %24
  %.2 = phi ptr [ %27, %24 ], [ %20, %29 ]
  %.sink6.i7 = phi i8 [ %28, %24 ], [ %22, %29 ]
  %31 = udiv i8 %.sink6.i7, 10
  %32 = or disjoint i8 %31, 48
  %33 = getelementptr inbounds nuw i8, ptr %.2, i64 1
  store i8 %32, ptr %.2, align 1, !tbaa !8
  %34 = urem i8 %.sink6.i7, 10
  br label %"_ZZNK5boost4urls12ipv4_address10print_implEPcENK3$_0clERS2_h.exit8"

"_ZZNK5boost4urls12ipv4_address10print_implEPcENK3$_0clERS2_h.exit8": ; preds = %29, %.sink.split.i6
  %.3 = phi ptr [ %33, %.sink.split.i6 ], [ %20, %29 ]
  %.0.i5 = phi i8 [ %34, %.sink.split.i6 ], [ %22, %29 ]
  %35 = or disjoint i8 %.0.i5, 48
  %36 = getelementptr inbounds nuw i8, ptr %.3, i64 1
  store i8 %35, ptr %.3, align 1, !tbaa !8
  %37 = getelementptr inbounds nuw i8, ptr %.3, i64 2
  store i8 46, ptr %36, align 1, !tbaa !8
  %38 = lshr i32 %3, 8
  %39 = trunc i32 %38 to i8
  %40 = icmp ugt i8 %39, 99
  br i1 %40, label %41, label %46

41:                                               ; preds = %"_ZZNK5boost4urls12ipv4_address10print_implEPcENK3$_0clERS2_h.exit8"
  %42 = udiv i8 %39, 100
  %43 = or disjoint i8 %42, 48
  %44 = getelementptr inbounds nuw i8, ptr %.3, i64 3
  store i8 %43, ptr %37, align 1, !tbaa !8
  %45 = urem i8 %39, 100
  br label %.sink.split.i10

46:                                               ; preds = %"_ZZNK5boost4urls12ipv4_address10print_implEPcENK3$_0clERS2_h.exit8"
  %47 = icmp ugt i8 %39, 9
  br i1 %47, label %.sink.split.i10, label %"_ZZNK5boost4urls12ipv4_address10print_implEPcENK3$_0clERS2_h.exit12"

.sink.split.i10:                                  ; preds = %46, %41
  %.4 = phi ptr [ %44, %41 ], [ %37, %46 ]
  %.sink6.i11 = phi i8 [ %45, %41 ], [ %39, %46 ]
  %48 = udiv i8 %.sink6.i11, 10
  %49 = or disjoint i8 %48, 48
  %50 = getelementptr inbounds nuw i8, ptr %.4, i64 1
  store i8 %49, ptr %.4, align 1, !tbaa !8
  %51 = urem i8 %.sink6.i11, 10
  br label %"_ZZNK5boost4urls12ipv4_address10print_implEPcENK3$_0clERS2_h.exit12"

"_ZZNK5boost4urls12ipv4_address10print_implEPcENK3$_0clERS2_h.exit12": ; preds = %46, %.sink.split.i10
  %.5 = phi ptr [ %50, %.sink.split.i10 ], [ %37, %46 ]
  %.0.i9 = phi i8 [ %51, %.sink.split.i10 ], [ %39, %46 ]
  %52 = or disjoint i8 %.0.i9, 48
  %53 = getelementptr inbounds nuw i8, ptr %.5, i64 1
  store i8 %52, ptr %.5, align 1, !tbaa !8
  %54 = getelementptr inbounds nuw i8, ptr %.5, i64 2
  store i8 46, ptr %53, align 1, !tbaa !8
  %55 = trunc i32 %3 to i8
  %56 = icmp ugt i8 %55, 99
  br i1 %56, label %57, label %62

57:                                               ; preds = %"_ZZNK5boost4urls12ipv4_address10print_implEPcENK3$_0clERS2_h.exit12"
  %58 = udiv i8 %55, 100
  %59 = or disjoint i8 %58, 48
  %60 = getelementptr inbounds nuw i8, ptr %.5, i64 3
  store i8 %59, ptr %54, align 1, !tbaa !8
  %61 = urem i8 %55, 100
  br label %.sink.split.i14

62:                                               ; preds = %"_ZZNK5boost4urls12ipv4_address10print_implEPcENK3$_0clERS2_h.exit12"
  %63 = icmp ugt i8 %55, 9
  br i1 %63, label %.sink.split.i14, label %"_ZZNK5boost4urls12ipv4_address10print_implEPcENK3$_0clERS2_h.exit16"

.sink.split.i14:                                  ; preds = %62, %57
  %.6 = phi ptr [ %60, %57 ], [ %54, %62 ]
  %.sink6.i15 = phi i8 [ %61, %57 ], [ %55, %62 ]
  %64 = udiv i8 %.sink6.i15, 10
  %65 = or disjoint i8 %64, 48
  %66 = getelementptr inbounds nuw i8, ptr %.6, i64 1
  store i8 %65, ptr %.6, align 1, !tbaa !8
  %67 = urem i8 %.sink6.i15, 10
  br label %"_ZZNK5boost4urls12ipv4_address10print_implEPcENK3$_0clERS2_h.exit16"

"_ZZNK5boost4urls12ipv4_address10print_implEPcENK3$_0clERS2_h.exit16": ; preds = %62, %.sink.split.i14
  %.7 = phi ptr [ %66, %.sink.split.i14 ], [ %54, %62 ]
  %.0.i13 = phi i8 [ %67, %.sink.split.i14 ], [ %55, %62 ]
  %68 = or disjoint i8 %.0.i13, 48
  %69 = getelementptr inbounds nuw i8, ptr %.7, i64 1
  store i8 %68, ptr %.7, align 1, !tbaa !8
  %70 = ptrtoint ptr %69 to i64
  %71 = ptrtoint ptr %1 to i64
  %72 = sub i64 %70, %71
  ret i64 %72
}